; Function Attrs: mustprogress nofree norecurse nosync nounwind willreturn memory(argmem: readwrite) uwtable
define dso_local void @_ZN5clang16CompilerInstance22setVerboseOutputStreamESt10unique_ptrIN4llvm11raw_ostreamESt14default_deleteIS3_EE(ptr noundef nonnull align 8 captures(none) dereferenceable(352) initializes((312, 320)) %0, ptr noundef captures(none) %1) local_unnamed_addr #6 align 2 {
  %3 = getelementptr inbounds nuw i8, ptr %0, i64 304
  %4 = load ptr, ptr %3, align 8
  %5 = load ptr, ptr %1, align 8
  store ptr %5, ptr %3, align 8
  store ptr %4, ptr %1, align 8
  %6 = load ptr, ptr %3, align 8
  %7 = getelementptr inbounds nuw i8, ptr %0, i64 312
  store ptr %6, ptr %7, align 8
  ret void
}